target datalayout = "e-m:e-p270:32:32-p271:32:32-p272:64:64-i64:64-i128:128-f80:128-n8:16:32:64-S128"
target triple = "x86_64-pc-linux-gnu"

; Function Attrs: mustprogress nounwind uwtable
define dso_local noundef ptr @_ZNK4llvm15TargetInstrInfo18commuteInstructionERNS_12MachineInstrEbjj(ptr noundef nonnull align 8 dereferenceable(80) %0, ptr noundef nonnull align 8 dereferenceable(70) %1, i1 noundef zeroext %2, i32 noundef %3, i32 noundef %4) #1 align 2 {
  %6 = alloca ptr, align 8
  %7 = alloca ptr, align 8
  %8 = alloca ptr, align 8
  %9 = alloca i8, align 1
  %10 = alloca i32, align 4
  %11 = alloca i32, align 4
  store ptr %0, ptr %7, align 8
  store ptr %1, ptr %8, align 8
  %12 = zext i1 %2 to i8
  store i8 %12, ptr %9, align 1
  store i32 %3, ptr %10, align 4
  store i32 %4, ptr %11, align 4
  %13 = load ptr, ptr %7, align 8
  %14 = load i32, ptr %10, align 4
  %15 = icmp eq i32 %14, -1
  br i1 %15, label %19, label %16

16:                                               ; preds = %5
  %17 = load i32, ptr %11, align 4
  %18 = icmp eq i32 %17, -1
  br i1 %18, label %19, label %26

19:                                               ; preds = %16, %5
  %20 = load ptr, ptr %8, align 8
  %21 = load ptr, ptr %13, align 8
  %22 = getelementptr inbounds ptr, ptr %21, i64 26
  %23 = load ptr, ptr %22, align 8
  %24 = call noundef zeroext i1 %23(ptr noundef nonnull align 8 dereferenceable(80) %13, ptr noundef nonnull align 8 dereferenceable(70) %20, ptr noundef nonnull align 4 dereferenceable(4) %10, ptr noundef nonnull align 4 dereferenceable(4) %11)
  br i1 %24, label %26, label %25

25:                                               ; preds = %19
  store ptr null, ptr %6, align 8
  br label %36

26:                                               ; preds = %19, %16
  %27 = load ptr, ptr %8, align 8
  %28 = load i8, ptr %9, align 1
  %29 = trunc i8 %28 to i1
  %30 = load i32, ptr %10, align 4
  %31 = load i32, ptr %11, align 4
  %32 = load ptr, ptr %13, align 8
  %33 = getelementptr inbounds ptr, ptr %32, i64 6
  %34 = load ptr, ptr %33, align 8
  %35 = call noundef ptr %34(ptr noundef nonnull align 8 dereferenceable(80) %13, ptr noundef nonnull align 8 dereferenceable(70) %27, i1 noundef zeroext %29, i32 noundef %30, i32 noundef %31)
  store ptr %35, ptr %6, align 8
  br label %36

36:                                               ; preds = %26, %25
  %37 = load ptr, ptr %6, align 8
  ret ptr %37
}