; Function Attrs: mustprogress nounwind uwtable
define dso_local noundef ptr @_ZNK4llvm15TargetInstrInfo18commuteInstructionERNS_12MachineInstrEbjj(ptr noundef nonnull align 8 dereferenceable(80) %0, ptr noundef nonnull align 8 dereferenceable(70) %1, i1 noundef zeroext %2, i32 noundef %3, i32 noundef %4) local_unnamed_addr #0 align 2 {
  %6 = alloca i32, align 4
  %7 = alloca i32, align 4
  store i32 %3, ptr %6, align 4
  store i32 %4, ptr %7, align 4
  %8 = icmp eq i32 %3, -1
  %9 = icmp eq i32 %4, -1
  %or.cond = or i1 %8, %9
  br i1 %or.cond, label %10, label %15

10:                                               ; preds = %5
  %11 = load ptr, ptr %0, align 8
  %12 = getelementptr inbounds i8, ptr %11, i64 208
  %13 = load ptr, ptr %12, align 8
  %14 = call noundef zeroext i1 %13(ptr noundef nonnull align 8 dereferenceable(80) %0, ptr noundef nonnull align 8 dereferenceable(70) %1, ptr noundef nonnull align 4 dereferenceable(4) %6, ptr noundef nonnull align 4 dereferenceable(4) %7) #26
  br i1 %14, label %._crit_edge, label %22

._crit_edge:                                      ; preds = %10
  %.pre = load i32, ptr %6, align 4
  %.pre5 = load i32, ptr %7, align 4
  br label %15

15:                                               ; preds = %._crit_edge, %5
  %16 = phi i32 [ %.pre5, %._crit_edge ], [ %4, %5 ]
  %17 = phi i32 [ %.pre, %._crit_edge ], [ %3, %5 ]
  %18 = load ptr, ptr %0, align 8
  %19 = getelementptr inbounds i8, ptr %18, i64 48
  %20 = load ptr, ptr %19, align 8
  %21 = call noundef ptr %20(ptr noundef nonnull align 8 dereferenceable(80) %0, ptr noundef nonnull align 8 dereferenceable(70) %1, i1 noundef zeroext %2, i32 noundef %17, i32 noundef %16) #26
  br label %22

22:                                               ; preds = %10, %15
  %.0 = phi ptr [ %21, %15 ], [ null, %10 ]
  ret ptr %.0
}